; ModuleID = '14/1480.c'
source_filename = "14/1480.c"
target datalayout = "e-m:e-p270:32:32-p271:32:32-p272:64:64-i64:64-f80:128-n8:16:32:64-S128"
target triple = "x86_64-pc-linux-gnu"

%struct.st = type { i32, i32, i32, i32 }

@.str = private unnamed_addr constant [3 x i8] c"%d\00", align 1
@.str.1 = private unnamed_addr constant [7 x i8] c"%d%d%d\00", align 1
@.str.2 = private unnamed_addr constant [7 x i8] c"%d %d\0A\00", align 1

; Function Attrs: noinline nounwind uwtable
define dso_local void @main() #0 {
  %1 = alloca i32, align 4
  %2 = alloca i32, align 4
  %3 = alloca i32, align 4
  %4 = alloca i32, align 4
  %5 = alloca i32, align 4
  %6 = alloca i32, align 4
  %7 = alloca i32, align 4
  %8 = alloca [100000 x %struct.st], align 16
  store i32 0, i32* %4, align 4
  store i32 0, i32* %5, align 4
  %9 = call i32 (i8*, ...) @__isoc99_scanf(i8* getelementptr inbounds ([3 x i8], [3 x i8]* @.str, i64 0, i64 0), i32* %1)
  store i32 0, i32* %2, align 4
  br label %10

10:                                               ; preds = %43, %0
  %11 = load i32, i32* %2, align 4
  %12 = load i32, i32* %1, align 4
  %13 = icmp slt i32 %11, %12
  br i1 %13, label %14, label %46

14:                                               ; preds = %10
  %15 = load i32, i32* %2, align 4
  %16 = sext i32 %15 to i64
  %17 = getelementptr inbounds [100000 x %struct.st], [100000 x %struct.st]* %8, i64 0, i64 %16
  %18 = getelementptr inbounds %struct.st, %struct.st* %17, i32 0, i32 0
  %19 = load i32, i32* %2, align 4
  %20 = sext i32 %19 to i64
  %21 = getelementptr inbounds [100000 x %struct.st], [100000 x %struct.st]* %8, i64 0, i64 %20
  %22 = getelementptr inbounds %struct.st, %struct.st* %21, i32 0, i32 1
  %23 = load i32, i32* %2, align 4
  %24 = sext i32 %23 to i64
  %25 = getelementptr inbounds [100000 x %struct.st], [100000 x %struct.st]* %8, i64 0, i64 %24
  %26 = getelementptr inbounds %struct.st, %struct.st* %25, i32 0, i32 2
  %27 = call i32 (i8*, ...) @__isoc99_scanf(i8* getelementptr inbounds ([7 x i8], [7 x i8]* @.str.1, i64 0, i64 0), i32* %18, i32* %22, i32* %26)
  %28 = load i32, i32* %2, align 4
  %29 = sext i32 %28 to i64
  %30 = getelementptr inbounds [100000 x %struct.st], [100000 x %struct.st]* %8, i64 0, i64 %29
  %31 = getelementptr inbounds %struct.st, %struct.st* %30, i32 0, i32 1
  %32 = load i32, i32* %31, align 4
  %33 = load i32, i32* %2, align 4
  %34 = sext i32 %33 to i64
  %35 = getelementptr inbounds [100000 x %struct.st], [100000 x %struct.st]* %8, i64 0, i64 %34
  %36 = getelementptr inbounds %struct.st, %struct.st* %35, i32 0, i32 2
  %37 = load i32, i32* %36, align 8
  %38 = add nsw i32 %32, %37
  %39 = load i32, i32* %2, align 4
  %40 = sext i32 %39 to i64
  %41 = getelementptr inbounds [100000 x %struct.st], [100000 x %struct.st]* %8, i64 0, i64 %40
  %42 = getelementptr inbounds %struct.st, %struct.st* %41, i32 0, i32 3
  store i32 %38, i32* %42, align 4
  br label %43

43:                                               ; preds = %14
  %44 = load i32, i32* %2, align 4
  %45 = add nsw i32 %44, 1
  store i32 %45, i32* %2, align 4
  br label %10

46:                                               ; preds = %10
  store i32 0, i32* %2, align 4
  br label %47

47:                                               ; preds = %97, %46
  %48 = load i32, i32* %2, align 4
  %49 = load i32, i32* %1, align 4
  %50 = icmp slt i32 %48, %49
  br i1 %50, label %51, label %100

51:                                               ; preds = %47
  store i32 0, i32* %6, align 4
  store i32 0, i32* %3, align 4
  br label %52

52:                                               ; preds = %72, %51
  %53 = load i32, i32* %3, align 4
  %54 = load i32, i32* %1, align 4
  %55 = icmp slt i32 %53, %54
  br i1 %55, label %56, label %75

56:                                               ; preds = %52
  %57 = load i32, i32* %3, align 4
  %58 = sext i32 %57 to i64
  %59 = getelementptr inbounds [100000 x %struct.st], [100000 x %struct.st]* %8, i64 0, i64 %58
  %60 = getelementptr inbounds %struct.st, %struct.st* %59, i32 0, i32 3
  %61 = load i32, i32* %60, align 4
  %62 = load i32, i32* %6, align 4
  %63 = icmp sgt i32 %61, %62
  br i1 %63, label %64, label %71

64:                                               ; preds = %56
  %65 = load i32, i32* %3, align 4
  %66 = sext i32 %65 to i64
  %67 = getelementptr inbounds [100000 x %struct.st], [100000 x %struct.st]* %8, i64 0, i64 %66
  %68 = getelementptr inbounds %struct.st, %struct.st* %67, i32 0, i32 3
  %69 = load i32, i32* %68, align 4
  store i32 %69, i32* %6, align 4
  %70 = load i32, i32* %3, align 4
  store i32 %70, i32* %7, align 4
  br label %71

71:                                               ; preds = %64, %56
  br label %72

72:                                               ; preds = %71
  %73 = load i32, i32* %3, align 4
  %74 = add nsw i32 %73, 1
  store i32 %74, i32* %3, align 4
  br label %52

75:                                               ; preds = %52
  %76 = load i32, i32* %7, align 4
  %77 = sext i32 %76 to i64
  %78 = getelementptr inbounds [100000 x %struct.st], [100000 x %struct.st]* %8, i64 0, i64 %77
  %79 = getelementptr inbounds %struct.st, %struct.st* %78, i32 0, i32 0
  %80 = load i32, i32* %79, align 16
  %81 = load i32, i32* %7, align 4
  %82 = sext i32 %81 to i64
  %83 = getelementptr inbounds [100000 x %struct.st], [100000 x %struct.st]* %8, i64 0, i64 %82
  %84 = getelementptr inbounds %struct.st, %struct.st* %83, i32 0, i32 3
  %85 = load i32, i32* %84, align 4
  %86 = call i32 (i8*, ...) @printf(i8* getelementptr inbounds ([7 x i8], [7 x i8]* @.str.2, i64 0, i64 0), i32 %80, i32 %85)
  %87 = load i32, i32* %5, align 4
  %88 = add nsw i32 %87, 1
  store i32 %88, i32* %5, align 4
  %89 = load i32, i32* %7, align 4
  %90 = sext i32 %89 to i64
  %91 = getelementptr inbounds [100000 x %struct.st], [100000 x %struct.st]* %8, i64 0, i64 %90
  %92 = getelementptr inbounds %struct.st, %struct.st* %91, i32 0, i32 3
  store i32 0, i32* %92, align 4
  %93 = load i32, i32* %5, align 4
  %94 = icmp eq i32 %93, 3
  br i1 %94, label %95, label %96

95:                                               ; preds = %75
  br label %100

96:                                               ; preds = %75
  br label %97

97:                                               ; preds = %96
  %98 = load i32, i32* %2, align 4
  %99 = add nsw i32 %98, 1
  store i32 %99, i32* %2, align 4
  br label %47

100:                                              ; preds = %95, %47
  ret void
}

declare dso_local i32 @__isoc99_scanf(i8*, ...) #1

declare dso_local i32 @printf(i8*, ...) #1


!llvm.module.flags = !{!0}
!llvm.ident = !{!1}

!0 = !{i32 1, !"wchar_size", i32 4}
!1 = !{!"clang version 10.0.0-4ubuntu1 "}
